target datalayout = "e-m:e-p270:32:32-p271:32:32-p272:64:64-i64:64-i128:128-f80:128-n8:16:32:64-S128"
target triple = "x86_64-pc-linux-gnu"

@H5S_init_g = global i8 0, align 1
@H5_libterm_g = external global i8, align 1
@.str.3 = private unnamed_addr constant [97 x i8] c"generated/home/dtcxzyw/WorkSpace/Projects/compilers/llvm-opt-benchmark/bench/hdf5/hdf5/src/H5S.c\00", align 1
@H5E_FUNC_g = external global i64, align 8
@H5E_CANTINIT_g = external global i64, align 8
@.str.4 = private unnamed_addr constant [32 x i8] c"interface initialization failed\00", align 1
@H5E_DATASPACE_g = external global i64, align 8
@H5E_CANTCREATE_g = external global i64, align 8
@.str.42 = private unnamed_addr constant [30 x i8] c"can't create simple dataspace\00", align 1
@__func__.H5S_create_simple = private unnamed_addr constant [18 x i8] c"H5S_create_simple\00", align 1
@.str.43 = private unnamed_addr constant [21 x i8] c"can't set dimensions\00", align 1

; Function Attrs: nounwind uwtable
define ptr @H5S_create_simple(i32 noundef %0, ptr noundef %1, ptr noundef %2) #0 {
  %4 = alloca i32, align 4
  %5 = alloca ptr, align 8
  %6 = alloca ptr, align 8
  %7 = alloca ptr, align 8
  %8 = alloca i8, align 1
  store i32 %0, ptr %4, align 4, !tbaa !3
  store ptr %1, ptr %5, align 8, !tbaa !45
  store ptr %2, ptr %6, align 8, !tbaa !45
  call void @llvm.lifetime.start.p0(i64 8, ptr %7) #7
  store ptr null, ptr %7, align 8, !tbaa !13
  call void @llvm.lifetime.start.p0(i64 1, ptr %8) #7
  store i8 0, ptr %8, align 1, !tbaa !7
  %9 = load i8, ptr @H5S_init_g, align 1, !tbaa !7, !range !9, !noundef !10
  %10 = trunc i8 %9 to i1
  br i1 %10, label %15, label %11

11:                                               ; preds = %3
  %12 = load i8, ptr @H5_libterm_g, align 1, !tbaa !7, !range !9, !noundef !10
  %13 = trunc i8 %12 to i1
  %14 = xor i1 %13, true
  br label %15

15:                                               ; preds = %11, %3
  %16 = phi i1 [ false, %3 ], [ %14, %11 ]
  %17 = xor i1 %16, true
  %18 = xor i1 %17, true
  %19 = zext i1 %18 to i32
  %20 = sext i32 %19 to i64
  %21 = call i64 @llvm.expect.i64(i64 %20, i64 0)
  %22 = icmp ne i64 %21, 0
  br i1 %22, label %23, label %46

23:                                               ; preds = %15
  store i8 1, ptr @H5S_init_g, align 1, !tbaa !7
  %24 = call i32 @H5S__init_package()
  %25 = icmp slt i32 %24, 0
  br i1 %25, label %26, label %45

26:                                               ; preds = %23
  store i8 0, ptr @H5S_init_g, align 1, !tbaa !7
  br label %27

27:                                               ; preds = %26
  br label %28

28:                                               ; preds = %27
  br label %29

29:                                               ; preds = %28
  %30 = load i64, ptr @H5E_FUNC_g, align 8, !tbaa !11
  %31 = load i64, ptr @H5E_CANTINIT_g, align 8, !tbaa !11
  %32 = call i32 (ptr, ptr, i32, i64, i64, ptr, ...) @H5E_printf_stack(ptr noundef @.str.3, ptr noundef @__func__.H5S_create_simple, i32 noundef 1395, i64 noundef %30, i64 noundef %31, ptr noundef @.str.4)
  br label %33

33:                                               ; preds = %29
  br label %34

34:                                               ; preds = %33
  store i8 1, ptr %8, align 1, !tbaa !7
  %35 = load i8, ptr %8, align 1, !tbaa !7, !range !9, !noundef !10
  %36 = trunc i8 %35 to i1
  %37 = zext i1 %36 to i8
  store i8 %37, ptr %8, align 1, !tbaa !7
  br label %38

38:                                               ; preds = %34
  br label %39

39:                                               ; preds = %38
  br label %40

40:                                               ; preds = %39
  store ptr null, ptr %7, align 8, !tbaa !13
  br label %110

41:                                               ; No predecessors!
  br label %42

42:                                               ; preds = %41
  br label %43

43:                                               ; preds = %42
  br label %44

44:                                               ; preds = %43
  br label %45

45:                                               ; preds = %44, %23
  br label %46

46:                                               ; preds = %45, %15
  %47 = load i8, ptr @H5S_init_g, align 1, !tbaa !7, !range !9, !noundef !10
  %48 = trunc i8 %47 to i1
  br i1 %48, label %53, label %49

49:                                               ; preds = %46
  %50 = load i8, ptr @H5_libterm_g, align 1, !tbaa !7, !range !9, !noundef !10
  %51 = trunc i8 %50 to i1
  %52 = xor i1 %51, true
  br label %53

53:                                               ; preds = %49, %46
  %54 = phi i1 [ true, %46 ], [ %52, %49 ]
  %55 = xor i1 %54, true
  %56 = xor i1 %55, true
  %57 = zext i1 %56 to i32
  %58 = sext i32 %57 to i64
  %59 = call i64 @llvm.expect.i64(i64 %58, i64 1)
  %60 = icmp ne i64 %59, 0
  br i1 %60, label %61, label %111

61:                                               ; preds = %53
  %62 = call ptr @H5S_create(i32 noundef 1)
  store ptr %62, ptr %7, align 8, !tbaa !13
  %63 = icmp eq ptr null, %62
  br i1 %63, label %64, label %83

64:                                               ; preds = %61
  br label %65

65:                                               ; preds = %64
  br label %66

66:                                               ; preds = %65
  br label %67

67:                                               ; preds = %66
  %68 = load i64, ptr @H5E_DATASPACE_g, align 8, !tbaa !11
  %69 = load i64, ptr @H5E_CANTCREATE_g, align 8, !tbaa !11
  %70 = call i32 (ptr, ptr, i32, i64, i64, ptr, ...) @H5E_printf_stack(ptr noundef @.str.3, ptr noundef @__func__.H5S_create_simple, i32 noundef 1402, i64 noundef %68, i64 noundef %69, ptr noundef @.str.42)
  br label %71

71:                                               ; preds = %67
  br label %72

72:                                               ; preds = %71
  store i8 1, ptr %8, align 1, !tbaa !7
  %73 = load i8, ptr %8, align 1, !tbaa !7, !range !9, !noundef !10
  %74 = trunc i8 %73 to i1
  %75 = zext i1 %74 to i8
  store i8 %75, ptr %8, align 1, !tbaa !7
  br label %76

76:                                               ; preds = %72
  br label %77

77:                                               ; preds = %76
  br label %78

78:                                               ; preds = %77
  store ptr null, ptr %7, align 8, !tbaa !13
  br label %110

79:                                               ; No predecessors!
  br label %80

80:                                               ; preds = %79
  br label %81

81:                                               ; preds = %80
  br label %82

82:                                               ; preds = %81
  br label %83

83:                                               ; preds = %82, %61
  %84 = load ptr, ptr %7, align 8, !tbaa !13
  %85 = load i32, ptr %4, align 4, !tbaa !3
  %86 = load ptr, ptr %5, align 8, !tbaa !45
  %87 = load ptr, ptr %6, align 8, !tbaa !45
  %88 = call i32 @H5S_set_extent_simple(ptr noundef %84, i32 noundef %85, ptr noundef %86, ptr noundef %87)
  %89 = icmp slt i32 %88, 0
  br i1 %89, label %90, label %109

90:                                               ; preds = %83
  br label %91

91:                                               ; preds = %90
  br label %92

92:                                               ; preds = %91
  br label %93

93:                                               ; preds = %92
  %94 = load i64, ptr @H5E_DATASPACE_g, align 8, !tbaa !11
  %95 = load i64, ptr @H5E_CANTINIT_g, align 8, !tbaa !11
  %96 = call i32 (ptr, ptr, i32, i64, i64, ptr, ...) @H5E_printf_stack(ptr noundef @.str.3, ptr noundef @__func__.H5S_create_simple, i32 noundef 1404, i64 noundef %94, i64 noundef %95, ptr noundef @.str.43)
  br label %97

97:                                               ; preds = %93
  br label %98

98:                                               ; preds = %97
  store i8 1, ptr %8, align 1, !tbaa !7
  %99 = load i8, ptr %8, align 1, !tbaa !7, !range !9, !noundef !10
  %100 = trunc i8 %99 to i1
  %101 = zext i1 %100 to i8
  store i8 %101, ptr %8, align 1, !tbaa !7
  br label %102

102:                                              ; preds = %98
  br label %103

103:                                              ; preds = %102
  br label %104

104:                                              ; preds = %103
  store ptr null, ptr %7, align 8, !tbaa !13
  br label %110

105:                                              ; No predecessors!
  br label %106

106:                                              ; preds = %105
  br label %107

107:                                              ; preds = %106
  br label %108

108:                                              ; preds = %107
  br label %109

109:                                              ; preds = %108, %83
  br label %110

110:                                              ; preds = %109, %104, %78, %40
  br label %111

111:                                              ; preds = %110, %53
  %112 = load ptr, ptr %7, align 8, !tbaa !13
  call void @llvm.lifetime.end.p0(i64 1, ptr %8) #7
  call void @llvm.lifetime.end.p0(i64 8, ptr %7) #7
  ret ptr %112
}