; Function Attrs: nounwind uwtable
define ptr @H5S_create_simple(i32 noundef %0, ptr noundef captures(address_is_null) %1, ptr noundef captures(address_is_null) %2) local_unnamed_addr #0 {
  %4 = load i8, ptr @H5S_init_g, align 1, !tbaa !3, !range !7, !noundef !8
  %5 = trunc nuw i8 %4 to i1
  %6 = load i8, ptr @H5_libterm_g, align 1, !range !7
  %7 = trunc nuw i8 %6 to i1
  %8 = select i1 %5, i1 true, i1 %7
  br i1 %8, label %16, label %9, !prof !9

9:                                                ; preds = %3
  store i8 1, ptr @H5S_init_g, align 1, !tbaa !3
  %10 = tail call i32 @H5S__init_package()
  %11 = icmp slt i32 %10, 0
  br i1 %11, label %12, label %._crit_edge

._crit_edge:                                      ; preds = %9
  %.pre = load i8, ptr @H5S_init_g, align 1, !tbaa !3, !range !7
  %.pre8 = load i8, ptr @H5_libterm_g, align 1, !range !7
  %.pre9 = trunc nuw i8 %.pre to i1
  %.pre10 = trunc nuw i8 %.pre8 to i1
  br label %16

12:                                               ; preds = %9
  store i8 0, ptr @H5S_init_g, align 1, !tbaa !3
  %13 = load i64, ptr @H5E_FUNC_g, align 8, !tbaa !10
  %14 = load i64, ptr @H5E_CANTINIT_g, align 8, !tbaa !10
  %15 = tail call i32 (ptr, ptr, i32, i64, i64, ptr, ...) @H5E_printf_stack(ptr noundef nonnull @.str.3, ptr noundef nonnull @__func__.H5S_create_simple, i32 noundef 1395, i64 noundef %13, i64 noundef %14, ptr noundef nonnull @.str.4) #10
  br label %33

16:                                               ; preds = %._crit_edge, %3
  %.pre-phi11 = phi i1 [ %.pre10, %._crit_edge ], [ %7, %3 ]
  %.pre-phi = phi i1 [ %.pre9, %._crit_edge ], [ %5, %3 ]
  %17 = xor i1 %.pre-phi11, true
  %18 = select i1 %.pre-phi, i1 true, i1 %17
  br i1 %18, label %19, label %33, !prof !9

19:                                               ; preds = %16
  %20 = tail call ptr @H5S_create(i32 noundef 1)
  %21 = icmp eq ptr %20, null
  br i1 %21, label %22, label %26

22:                                               ; preds = %19
  %23 = load i64, ptr @H5E_DATASPACE_g, align 8, !tbaa !10
  %24 = load i64, ptr @H5E_CANTCREATE_g, align 8, !tbaa !10
  %25 = tail call i32 (ptr, ptr, i32, i64, i64, ptr, ...) @H5E_printf_stack(ptr noundef nonnull @.str.3, ptr noundef nonnull @__func__.H5S_create_simple, i32 noundef 1402, i64 noundef %23, i64 noundef %24, ptr noundef nonnull @.str.42) #10
  br label %33

26:                                               ; preds = %19
  %27 = tail call i32 @H5S_set_extent_simple(ptr noundef nonnull %20, i32 noundef %0, ptr noundef %1, ptr noundef %2)
  %28 = icmp slt i32 %27, 0
  br i1 %28, label %29, label %33

29:                                               ; preds = %26
  %30 = load i64, ptr @H5E_DATASPACE_g, align 8, !tbaa !10
  %31 = load i64, ptr @H5E_CANTINIT_g, align 8, !tbaa !10
  %32 = tail call i32 (ptr, ptr, i32, i64, i64, ptr, ...) @H5E_printf_stack(ptr noundef nonnull @.str.3, ptr noundef nonnull @__func__.H5S_create_simple, i32 noundef 1404, i64 noundef %30, i64 noundef %31, ptr noundef nonnull @.str.43) #10
  br label %33

33:                                               ; preds = %12, %22, %29, %26, %16
  %.0 = phi ptr [ null, %12 ], [ null, %22 ], [ null, %29 ], [ %20, %26 ], [ null, %16 ]
  ret ptr %.0
}